; Function Attrs: mustprogress nounwind uwtable
define internal fastcc void @_ZN32pxrInternal_v0_24__pxrReserved__12_GLOBAL__N_143AttributeMayAffectFileFormatArgumentsChangeD2Ev(i32 %.0.val) unnamed_addr #4 align 2 personality ptr @__gxx_personality_v0 {
  %.not.i.i = icmp eq i32 %.0.val, 0
  br i1 %.not.i.i, label %_ZN32pxrInternal_v0_24__pxrReserved__7SdfPathD2Ev.exit, label %1

1:                                                ; preds = %0
  %2 = and i32 %.0.val, 255
  %3 = lshr i32 %.0.val, 8
  %4 = zext nneg i32 %2 to i64
  %5 = getelementptr inbounds [257 x ptr], ptr @_ZN32pxrInternal_v0_24__pxrReserved__8Sdf_PoolINS_15Sdf_PathPrimTagELj24ELj8ELj16384EE13_regionStartsE, i64 0, i64 %4
  %6 = load ptr, ptr %5, align 8
  %7 = mul nuw nsw i32 %3, 24
  %8 = zext nneg i32 %7 to i64
  %9 = getelementptr inbounds i8, ptr %6, i64 %8
  %10 = getelementptr inbounds nuw i8, ptr %9, i64 8
  %11 = atomicrmw sub ptr %10, i32 1 seq_cst, align 4
  %12 = and i32 %11, 2147483647
  %13 = icmp eq i32 %12, 1
  br i1 %13, label %14, label %_ZN32pxrInternal_v0_24__pxrReserved__7SdfPathD2Ev.exit

14:                                               ; preds = %1
  invoke void @_ZNK32pxrInternal_v0_24__pxrReserved__12Sdf_PathNode8_DestroyEv(ptr noundef nonnull align 8 dereferenceable(16) %9)
          to label %_ZN32pxrInternal_v0_24__pxrReserved__7SdfPathD2Ev.exit unwind label %15

15:                                               ; preds = %14
  %16 = landingpad { ptr, i32 }
          catch ptr null
  %17 = extractvalue { ptr, i32 } %16, 0
  tail call void @__clang_call_terminate(ptr %17) #24
  unreachable

_ZN32pxrInternal_v0_24__pxrReserved__7SdfPathD2Ev.exit: ; preds = %0, %1, %14
  ret void
}